#include <math.h>
#include <stdio.h>
#include <stdlib.h>
#include <string.h>

int main ()
{
    int i,j=0,h=1,la,lb;
    double s,r;
    char a[1000],b[1000];
    scanf ("%lf",&s);
    scanf ("%s\n%s",a,b);
    la=strlen(a);
    lb=strlen(b);
    if (la!=lb)
    {
        printf ("error");
    }
    else 
    {
        for (i=0;a[i]!='\0';i++)
        { 
            if (((a[i]!='A')&&(a[i]!='G')&&(a[i]!='C')&&(a[i]!='T'))||((b[i]!='A')&&(b[i]!='G')&&(b[i]!='C')&&(b[i]!='T')))
            {
                printf ("error");
                h=0;
                break;
            }             
        }
        if (h==1)
        {
            for (i=0;a[i]!='\0';i++)
            {
                if (a[i]==b[i])
                {
                    j++;
                }
            }
            r=(double)j/(double)la;
            if (r>=s)
            { printf ("yes"); }
            else 
            { printf ("no"); }
        }
    }
    
    return 0;
}

