; ModuleID = 'source-C-CXX/4/894.c'
source_filename = "source-C-CXX/4/894.c"
target datalayout = "e-m:e-p270:32:32-p271:32:32-p272:64:64-i64:64-f80:128-n8:16:32:64-S128"
target triple = "x86_64-pc-linux-gnu"

@.str = private unnamed_addr constant [4 x i8] c"%lf\00", align 1
@.str.1 = private unnamed_addr constant [6 x i8] c"%s\0A%s\00", align 1
@.str.2 = private unnamed_addr constant [6 x i8] c"error\00", align 1
@.str.3 = private unnamed_addr constant [4 x i8] c"yes\00", align 1
@.str.4 = private unnamed_addr constant [3 x i8] c"no\00", align 1

; Function Attrs: nofree nounwind sspstrong uwtable
define dso_local i32 @main() local_unnamed_addr #0 {
  %1 = alloca double, align 8
  %2 = alloca [1000 x i8], align 16
  %3 = alloca [1000 x i8], align 16
  %4 = bitcast double* %1 to i8*
  call void @llvm.lifetime.start.p0i8(i64 8, i8* nonnull %4) #4
  %5 = getelementptr inbounds [1000 x i8], [1000 x i8]* %2, i64 0, i64 0
  call void @llvm.lifetime.start.p0i8(i64 1000, i8* nonnull %5) #4
  %6 = getelementptr inbounds [1000 x i8], [1000 x i8]* %3, i64 0, i64 0
  call void @llvm.lifetime.start.p0i8(i64 1000, i8* nonnull %6) #4
  %7 = call i32 (i8*, ...) @__isoc99_scanf(i8* getelementptr inbounds ([4 x i8], [4 x i8]* @.str, i64 0, i64 0), double* nonnull %1)
  %8 = call i32 (i8*, ...) @__isoc99_scanf(i8* getelementptr inbounds ([6 x i8], [6 x i8]* @.str.1, i64 0, i64 0), i8* nonnull %5, i8* nonnull %6)
  %9 = call i64 @strlen(i8* noundef nonnull %5) #5
  %10 = trunc i64 %9 to i32
  %11 = call i64 @strlen(i8* noundef nonnull %6) #5
  %12 = trunc i64 %11 to i32
  %13 = icmp eq i32 %10, %12
  br i1 %13, label %14, label %48

14:                                               ; preds = %0, %24
  %15 = phi i64 [ %25, %24 ], [ 0, %0 ]
  %16 = getelementptr inbounds [1000 x i8], [1000 x i8]* %2, i64 0, i64 %15
  %17 = load i8, i8* %16, align 1, !tbaa !5
  switch i8 %17, label %48 [
    i8 0, label %18
    i8 65, label %21
    i8 71, label %21
    i8 67, label %21
    i8 84, label %21
  ]

18:                                               ; preds = %14
  %19 = load i8, i8* %5, align 16, !tbaa !5
  %20 = icmp eq i8 %19, 0
  br i1 %20, label %41, label %26

21:                                               ; preds = %14, %14, %14, %14
  %22 = getelementptr inbounds [1000 x i8], [1000 x i8]* %3, i64 0, i64 %15
  %23 = load i8, i8* %22, align 1, !tbaa !5
  switch i8 %23, label %48 [
    i8 65, label %24
    i8 71, label %24
    i8 67, label %24
    i8 84, label %24
  ]

24:                                               ; preds = %21, %21, %21, %21
  %25 = add nuw i64 %15, 1
  br label %14, !llvm.loop !8

26:                                               ; preds = %18, %26
  %27 = phi i64 [ %35, %26 ], [ 0, %18 ]
  %28 = phi i8 [ %37, %26 ], [ %19, %18 ]
  %29 = phi i32 [ %34, %26 ], [ 0, %18 ]
  %30 = getelementptr inbounds [1000 x i8], [1000 x i8]* %3, i64 0, i64 %27
  %31 = load i8, i8* %30, align 1, !tbaa !5
  %32 = icmp eq i8 %28, %31
  %33 = zext i1 %32 to i32
  %34 = add nuw nsw i32 %29, %33
  %35 = add nuw nsw i64 %27, 1
  %36 = getelementptr inbounds [1000 x i8], [1000 x i8]* %2, i64 0, i64 %35
  %37 = load i8, i8* %36, align 1, !tbaa !5
  %38 = icmp eq i8 %37, 0
  br i1 %38, label %39, label %26, !llvm.loop !10

39:                                               ; preds = %26
  %40 = sitofp i32 %34 to double
  br label %41

41:                                               ; preds = %39, %18
  %42 = phi double [ 0.000000e+00, %18 ], [ %40, %39 ]
  %43 = sitofp i32 %10 to double
  %44 = fdiv double %42, %43
  %45 = load double, double* %1, align 8, !tbaa !11
  %46 = fcmp ult double %44, %45
  %47 = select i1 %46, i8* getelementptr inbounds ([3 x i8], [3 x i8]* @.str.4, i64 0, i64 0), i8* getelementptr inbounds ([4 x i8], [4 x i8]* @.str.3, i64 0, i64 0)
  br label %48

48:                                               ; preds = %21, %14, %41, %0
  %49 = phi i8* [ getelementptr inbounds ([6 x i8], [6 x i8]* @.str.2, i64 0, i64 0), %0 ], [ %47, %41 ], [ getelementptr inbounds ([6 x i8], [6 x i8]* @.str.2, i64 0, i64 0), %14 ], [ getelementptr inbounds ([6 x i8], [6 x i8]* @.str.2, i64 0, i64 0), %21 ]
  %50 = call i32 (i8*, ...) @printf(i8* nonnull dereferenceable(1) %49)
  call void @llvm.lifetime.end.p0i8(i64 1000, i8* nonnull %6) #4
  call void @llvm.lifetime.end.p0i8(i64 1000, i8* nonnull %5) #4
  call void @llvm.lifetime.end.p0i8(i64 8, i8* nonnull %4) #4
  ret i32 0
}

; Function Attrs: argmemonly mustprogress nofree nosync nounwind willreturn
declare void @llvm.lifetime.start.p0i8(i64 immarg, i8* nocapture) #1

; Function Attrs: nofree nounwind
declare noundef i32 @__isoc99_scanf(i8* nocapture noundef readonly, ...) local_unnamed_addr #2

; Function Attrs: argmemonly mustprogress nofree nounwind readonly willreturn
declare i64 @strlen(i8* nocapture) local_unnamed_addr #3

; Function Attrs: nofree nounwind
declare noundef i32 @printf(i8* nocapture noundef readonly, ...) local_unnamed_addr #2

; Function Attrs: argmemonly mustprogress nofree nosync nounwind willreturn
declare void @llvm.lifetime.end.p0i8(i64 immarg, i8* nocapture) #1


!llvm.module.flags = !{!0, !1, !2, !3}
!llvm.ident = !{!4}

!0 = !{i32 1, !"wchar_size", i32 4}
!1 = !{i32 7, !"PIC Level", i32 2}
!2 = !{i32 7, !"PIE Level", i32 2}
!3 = !{i32 7, !"uwtable", i32 1}
!4 = !{!"clang version 13.0.0"}
!5 = !{!6, !6, i64 0}
!6 = !{!"omnipotent char", !7, i64 0}
!7 = !{!"Simple C/C++ TBAA"}
!8 = distinct !{!8, !9}
!9 = !{!"llvm.loop.mustprogress"}
!10 = distinct !{!10, !9}
!11 = !{!12, !12, i64 0}
!12 = !{!"double", !6, i64 0}
